; Function Attrs: mustprogress nofree norecurse nosync nounwind sspstrong willreturn memory(read, argmem: write, inaccessiblemem: none) uwtable
define hidden noundef i64 @rb_setup_fake_ary(ptr noundef initializes((0, 8)) %0, ptr noundef %1, i64 noundef %2) local_unnamed_addr #8 {
  %4 = load i64, ptr @fake_ary_flags, align 8, !tbaa !13
  store i64 %4, ptr %0, align 8, !tbaa !36
  %5 = ptrtoint ptr %0 to i64
  %6 = getelementptr inbounds nuw i8, ptr %0, i64 8
  store i64 0, ptr %6, align 8, !tbaa !13
  %7 = getelementptr inbounds nuw i8, ptr %0, i64 16
  %8 = getelementptr inbounds nuw i8, ptr %0, i64 32
  store ptr %1, ptr %8, align 8, !tbaa !12
  store i64 %2, ptr %7, align 8, !tbaa !12
  %9 = getelementptr inbounds nuw i8, ptr %0, i64 24
  store i64 %2, ptr %9, align 8, !tbaa !12
  ret i64 %5
}